; Function Attrs: nounwind sspstrong uwtable
define internal i64 @rb_hash_select_bang(i64 noundef %0) #0 {
  %2 = tail call i32 @rb_block_given_p() #28
  %.not = icmp eq i32 %2, 0
  br i1 %.not, label %3, label %7

3:                                                ; preds = %1
  %4 = tail call i64 @rb_frame_this_func() #28
  %5 = tail call i64 @rb_id2sym(i64 noundef %4) #28
  %6 = tail call i64 @rb_enumeratorize_with_size(i64 noundef %0, i64 noundef %5, i32 noundef 0, ptr noundef null, ptr noundef nonnull @hash_enum_size) #28
  br label %42

7:                                                ; preds = %1
  %8 = icmp eq i64 %0, 0
  %9 = and i64 %0, 7
  %10 = icmp ne i64 %9, 0
  %11 = or i1 %8, %10
  br i1 %11, label %RB_OBJ_FROZEN.exit.thread.i.i, label %RB_FL_ABLE.exit.i.i.i, !prof !62

RB_FL_ABLE.exit.i.i.i:                            ; preds = %7
  %12 = inttoptr i64 %0 to ptr
  %13 = load i64, ptr %12, align 8, !tbaa !11
  %14 = and i64 %13, 31
  %.not.i.i.i = icmp eq i64 %14, 27
  %15 = and i64 %13, 2048
  %16 = icmp ne i64 %15, 0
  %or.cond.i.i = or i1 %.not.i.i.i, %16
  br i1 %or.cond.i.i, label %RB_OBJ_FROZEN.exit.thread.i.i, label %rbimpl_RB_TYPE_P_fastpath.exit.i.i, !prof !63

RB_OBJ_FROZEN.exit.thread.i.i:                    ; preds = %RB_FL_ABLE.exit.i.i.i, %7
  tail call void @rb_error_frozen_object(i64 noundef %0) #30
  unreachable

rbimpl_RB_TYPE_P_fastpath.exit.i.i:               ; preds = %RB_FL_ABLE.exit.i.i.i
  %17 = icmp ne i64 %14, 5
  %18 = and i64 %13, 49152
  %.not.i.i = icmp eq i64 %18, 0
  %or.cond8.i.i = or i1 %17, %.not.i.i
  br i1 %or.cond8.i.i, label %rb_hash_modify_check.exit, label %19, !prof !64

19:                                               ; preds = %rbimpl_RB_TYPE_P_fastpath.exit.i.i
  tail call void @rb_str_modify(i64 noundef %0) #28
  %.pre = load i64, ptr %12, align 8, !tbaa !11
  br label %rb_hash_modify_check.exit

rb_hash_modify_check.exit:                        ; preds = %rbimpl_RB_TYPE_P_fastpath.exit.i.i, %19
  %20 = phi i64 [ %13, %rbimpl_RB_TYPE_P_fastpath.exit.i.i ], [ %.pre, %19 ]
  %21 = and i64 %20, 32768
  %.not.i.i13 = icmp eq i64 %21, 0
  br i1 %.not.i.i13, label %22, label %25

22:                                               ; preds = %rb_hash_modify_check.exit
  %23 = lshr i64 %20, 16
  %24 = and i64 %23, 15
  br label %RHASH_SIZE.exit

25:                                               ; preds = %rb_hash_modify_check.exit
  %26 = add i64 %0, 24
  %27 = inttoptr i64 %26 to ptr
  %28 = getelementptr inbounds nuw i8, ptr %27, i64 16
  %29 = load i64, ptr %28, align 8, !tbaa !49
  br label %RHASH_SIZE.exit

RHASH_SIZE.exit:                                  ; preds = %22, %25
  %.0.i = phi i64 [ %24, %22 ], [ %29, %25 ]
  %.not12 = icmp eq i64 %.0.i, 0
  br i1 %.not12, label %42, label %30

30:                                               ; preds = %RHASH_SIZE.exit
  tail call void @rb_hash_foreach(i64 noundef %0, ptr noundef @keep_if_i, i64 noundef %0)
  %31 = load i64, ptr %12, align 8, !tbaa !11
  %32 = and i64 %31, 32768
  %.not.i.i14 = icmp eq i64 %32, 0
  br i1 %.not.i.i14, label %33, label %36

33:                                               ; preds = %30
  %34 = lshr i64 %31, 16
  %35 = and i64 %34, 15
  br label %RHASH_SIZE.exit16

36:                                               ; preds = %30
  %37 = add i64 %0, 24
  %38 = inttoptr i64 %37 to ptr
  %39 = getelementptr inbounds nuw i8, ptr %38, i64 16
  %40 = load i64, ptr %39, align 8, !tbaa !49
  br label %RHASH_SIZE.exit16

RHASH_SIZE.exit16:                                ; preds = %33, %36
  %.0.i15 = phi i64 [ %35, %33 ], [ %40, %36 ]
  %41 = icmp eq i64 %.0.i, %.0.i15
  %. = select i1 %41, i64 4, i64 %0
  br label %42

42:                                               ; preds = %RHASH_SIZE.exit16, %RHASH_SIZE.exit, %3
  %.0 = phi i64 [ %6, %3 ], [ 4, %RHASH_SIZE.exit ], [ %., %RHASH_SIZE.exit16 ]
  ret i64 %.0
}